; Function Attrs: nofree norecurse nosync nounwind memory(argmem: read) uwtable
define internal i32 @pg_eucjp_verifystr(ptr noundef %0, i32 noundef %1) #5 {
  %3 = icmp sgt i32 %1, 0
  br i1 %3, label %.lr.ph, label %.thread

.lr.ph:                                           ; preds = %2, %29
  %.01424 = phi ptr [ %31, %29 ], [ %0, %2 ]
  %.01523 = phi i32 [ %32, %29 ], [ %1, %2 ]
  %4 = load i8, ptr %.01424, align 1
  %.not = icmp sgt i8 %4, -1
  br i1 %.not, label %5, label %7

5:                                                ; preds = %.lr.ph
  %6 = icmp eq i8 %4, 0
  br i1 %6, label %.thread, label %29

7:                                                ; preds = %.lr.ph
  %8 = getelementptr inbounds nuw i8, ptr %.01424, i64 1
  switch i8 %4, label %23 [
    i8 -114, label %9
    i8 -113, label %14
  ]

9:                                                ; preds = %7
  %10 = icmp eq i32 %.01523, 1
  br i1 %10, label %.thread, label %11

11:                                               ; preds = %9
  %12 = load i8, ptr %8, align 1
  %13 = add i8 %12, 32
  %or.cond.i = icmp ult i8 %13, -63
  br i1 %or.cond.i, label %.thread, label %29

14:                                               ; preds = %7
  %15 = icmp samesign ult i32 %.01523, 3
  br i1 %15, label %.thread, label %16

16:                                               ; preds = %14
  %17 = load i8, ptr %8, align 1
  %18 = add i8 %17, 95
  %or.cond5.i = icmp ult i8 %18, 94
  br i1 %or.cond5.i, label %19, label %.thread

19:                                               ; preds = %16
  %20 = getelementptr inbounds nuw i8, ptr %.01424, i64 2
  %21 = load i8, ptr %20, align 1
  %22 = add i8 %21, 95
  %or.cond8.i = icmp ult i8 %22, 94
  br i1 %or.cond8.i, label %29, label %.thread

23:                                               ; preds = %7
  %24 = icmp ne i32 %.01523, 1
  %25 = add nsw i8 %4, 95
  %or.cond11.i = icmp ult i8 %25, 94
  %or.cond39.i = select i1 %24, i1 %or.cond11.i, i1 false
  br i1 %or.cond39.i, label %26, label %.thread

26:                                               ; preds = %23
  %27 = load i8, ptr %8, align 1
  %28 = add i8 %27, 95
  %or.cond14.i = icmp ult i8 %28, 94
  br i1 %or.cond14.i, label %29, label %.thread

29:                                               ; preds = %5, %11, %19, %26
  %.013 = phi i32 [ 1, %5 ], [ 2, %26 ], [ 3, %19 ], [ 2, %11 ]
  %30 = zext nneg i32 %.013 to i64
  %31 = getelementptr inbounds nuw i8, ptr %.01424, i64 %30
  %32 = sub nsw i32 %.01523, %.013
  %33 = icmp sgt i32 %32, 0
  br i1 %33, label %.lr.ph, label %.thread

.thread:                                          ; preds = %29, %5, %9, %11, %14, %16, %19, %23, %26, %2
  %.014.lcssa = phi ptr [ %0, %2 ], [ %.01424, %26 ], [ %.01424, %23 ], [ %.01424, %19 ], [ %.01424, %16 ], [ %.01424, %14 ], [ %.01424, %11 ], [ %.01424, %9 ], [ %.01424, %5 ], [ %31, %29 ]
  %34 = ptrtoint ptr %.014.lcssa to i64
  %35 = ptrtoint ptr %0 to i64
  %36 = sub i64 %34, %35
  %37 = trunc i64 %36 to i32
  ret i32 %37
}